target datalayout = "e-m:e-p270:32:32-p271:32:32-p272:64:64-i64:64-i128:128-f80:128-n8:16:32:64-S128"
target triple = "x86_64-pc-linux-gnu"

@.str.2 = private unnamed_addr constant [5 x i8] c"_neg\00", align 1
@.str.3 = private unnamed_addr constant [5 x i8] c"_pos\00", align 1
@.str.4 = private unnamed_addr constant [22 x i8] c"    input  [%d:0] i,\0A\00", align 1
@.str.6 = private unnamed_addr constant [21 x i8] c"    output [%d:0] o\0A\00", align 1
@.str.7 = private unnamed_addr constant [4 x i8] c");\0A\00", align 1
@.str.8 = private unnamed_addr constant [29 x i8] c"    wire [%d:0] c = %d'h%x;\0A\00", align 1
@.str.11 = private unnamed_addr constant [12 x i8] c"endmodule\0A\0A\00", align 1
@.str.12 = private unnamed_addr constant [61 x i8] c"// %d-bit multiplier by %d-bit constant %d generated by ABC\0A\00", align 1
@.str.13 = private unnamed_addr constant [20 x i8] c"module mul%03d%s (\0A\00", align 1
@.str.14 = private unnamed_addr constant [39 x i8] c"    wire [%d:0] I = {{%d{i[%d]}}, i};\0A\00", align 1
@.str.15 = private unnamed_addr constant [28 x i8] c"    wire [%d:0] m = I * c;\0A\00", align 1
@.str.16 = private unnamed_addr constant [26 x i8] c"    wire [%d:0] t = %cm;\0A\00", align 1
@.str.17 = private unnamed_addr constant [26 x i8] c"    assign o = t[%d:%d];\0A\00", align 1

; Function Attrs: inlinehint nounwind uwtable
define internal i32 @Abc_AbsInt(i32 noundef %0) #4 {
  %2 = alloca i32, align 4
  store i32 %0, ptr %2, align 4, !tbaa !8
  %3 = load i32, ptr %2, align 4, !tbaa !8
  %4 = icmp slt i32 %3, 0
  br i1 %4, label %5, label %8

5:                                                ; preds = %1
  %6 = load i32, ptr %2, align 4, !tbaa !8
  %7 = sub nsw i32 0, %6
  br label %10

8:                                                ; preds = %1
  %9 = load i32, ptr %2, align 4, !tbaa !8
  br label %10

10:                                               ; preds = %8, %5
  %11 = phi i32 [ %7, %5 ], [ %9, %8 ]
  ret i32 %11
}

; Function Attrs: nounwind uwtable
define void @Macc_ConstMultSpecOne(ptr noundef %0, i32 noundef %1, i32 noundef %2, i32 noundef %3) #0 {
  %5 = alloca ptr, align 8
  %6 = alloca i32, align 4
  %7 = alloca i32, align 4
  %8 = alloca i32, align 4
  %9 = alloca i32, align 4
  %10 = alloca i32, align 4
  store ptr %0, ptr %5, align 8, !tbaa !3
  store i32 %1, ptr %6, align 4, !tbaa !8
  store i32 %2, ptr %7, align 4, !tbaa !8
  store i32 %3, ptr %8, align 4, !tbaa !8
  call void @llvm.lifetime.start.p0(i64 4, ptr %9) #9
  %11 = load i32, ptr %8, align 4, !tbaa !8
  %12 = load i32, ptr %7, align 4, !tbaa !8
  %13 = add nsw i32 %11, %12
  store i32 %13, ptr %9, align 4, !tbaa !8
  call void @llvm.lifetime.start.p0(i64 4, ptr %10) #9
  %14 = load i32, ptr %7, align 4, !tbaa !8
  %15 = sub nsw i32 %14, 1
  %16 = shl i32 1, %15
  store i32 %16, ptr %10, align 4, !tbaa !8
  %17 = load ptr, ptr %5, align 8, !tbaa !3
  %18 = load i32, ptr %8, align 4, !tbaa !8
  %19 = load i32, ptr %7, align 4, !tbaa !8
  %20 = load i32, ptr %6, align 4, !tbaa !8
  %21 = call i32 (ptr, ptr, ...) @fprintf(ptr noundef %17, ptr noundef @.str.12, i32 noundef %18, i32 noundef %19, i32 noundef %20) #9
  %22 = load ptr, ptr %5, align 8, !tbaa !3
  %23 = load i32, ptr %6, align 4, !tbaa !8
  %24 = call i32 @Abc_AbsInt(i32 noundef %23)
  %25 = load i32, ptr %6, align 4, !tbaa !8
  %26 = icmp slt i32 %25, 0
  %27 = select i1 %26, ptr @.str.2, ptr @.str.3
  %28 = call i32 (ptr, ptr, ...) @fprintf(ptr noundef %22, ptr noundef @.str.13, i32 noundef %24, ptr noundef %27) #9
  %29 = load ptr, ptr %5, align 8, !tbaa !3
  %30 = load i32, ptr %8, align 4, !tbaa !8
  %31 = sub nsw i32 %30, 1
  %32 = call i32 (ptr, ptr, ...) @fprintf(ptr noundef %29, ptr noundef @.str.4, i32 noundef %31) #9
  %33 = load ptr, ptr %5, align 8, !tbaa !3
  %34 = load i32, ptr %8, align 4, !tbaa !8
  %35 = sub nsw i32 %34, 1
  %36 = call i32 (ptr, ptr, ...) @fprintf(ptr noundef %33, ptr noundef @.str.6, i32 noundef %35) #9
  %37 = load ptr, ptr %5, align 8, !tbaa !3
  %38 = call i32 (ptr, ptr, ...) @fprintf(ptr noundef %37, ptr noundef @.str.7) #9
  %39 = load ptr, ptr %5, align 8, !tbaa !3
  %40 = load i32, ptr %7, align 4, !tbaa !8
  %41 = sub nsw i32 %40, 1
  %42 = load i32, ptr %7, align 4, !tbaa !8
  %43 = load i32, ptr %6, align 4, !tbaa !8
  %44 = call i32 @Abc_AbsInt(i32 noundef %43)
  %45 = call i32 (ptr, ptr, ...) @fprintf(ptr noundef %39, ptr noundef @.str.8, i32 noundef %41, i32 noundef %42, i32 noundef %44) #9
  %46 = load ptr, ptr %5, align 8, !tbaa !3
  %47 = load i32, ptr %9, align 4, !tbaa !8
  %48 = sub nsw i32 %47, 1
  %49 = load i32, ptr %7, align 4, !tbaa !8
  %50 = load i32, ptr %8, align 4, !tbaa !8
  %51 = sub nsw i32 %50, 1
  %52 = call i32 (ptr, ptr, ...) @fprintf(ptr noundef %46, ptr noundef @.str.14, i32 noundef %48, i32 noundef %49, i32 noundef %51) #9
  %53 = load ptr, ptr %5, align 8, !tbaa !3
  %54 = load i32, ptr %9, align 4, !tbaa !8
  %55 = sub nsw i32 %54, 1
  %56 = call i32 (ptr, ptr, ...) @fprintf(ptr noundef %53, ptr noundef @.str.15, i32 noundef %55) #9
  %57 = load ptr, ptr %5, align 8, !tbaa !3
  %58 = load i32, ptr %9, align 4, !tbaa !8
  %59 = sub nsw i32 %58, 1
  %60 = load i32, ptr %6, align 4, !tbaa !8
  %61 = icmp slt i32 %60, 0
  %62 = select i1 %61, i32 45, i32 32
  %63 = call i32 (ptr, ptr, ...) @fprintf(ptr noundef %57, ptr noundef @.str.16, i32 noundef %59, i32 noundef %62) #9
  %64 = load ptr, ptr %5, align 8, !tbaa !3
  %65 = load i32, ptr %9, align 4, !tbaa !8
  %66 = sub nsw i32 %65, 1
  %67 = load i32, ptr %7, align 4, !tbaa !8
  %68 = call i32 (ptr, ptr, ...) @fprintf(ptr noundef %64, ptr noundef @.str.17, i32 noundef %66, i32 noundef %67) #9
  %69 = load ptr, ptr %5, align 8, !tbaa !3
  %70 = call i32 (ptr, ptr, ...) @fprintf(ptr noundef %69, ptr noundef @.str.11) #9
  call void @llvm.lifetime.end.p0(i64 4, ptr %10) #9
  call void @llvm.lifetime.end.p0(i64 4, ptr %9) #9
  ret void
}