; Function Attrs: nofree nounwind uwtable
define void @Macc_ConstMultSpecOne(ptr noundef captures(none) %0, i32 noundef %1, i32 noundef %2, i32 noundef %3) local_unnamed_addr #4 {
  %5 = add i32 %2, -1
  %6 = tail call i32 (ptr, ptr, ...) @fprintf(ptr noundef %0, ptr noundef nonnull @.str.12, i32 noundef %3, i32 noundef %2, i32 noundef %1) #12
  %7 = tail call range(i32 0, -2147483648) i32 @llvm.abs.i32(i32 %1, i1 true)
  %8 = icmp slt i32 %1, 0
  %9 = select i1 %8, ptr @.str.2, ptr @.str.3
  %10 = tail call i32 (ptr, ptr, ...) @fprintf(ptr noundef %0, ptr noundef nonnull @.str.13, i32 noundef %7, ptr noundef nonnull %9) #12
  %11 = add nsw i32 %3, -1
  %12 = tail call i32 (ptr, ptr, ...) @fprintf(ptr noundef %0, ptr noundef nonnull @.str.4, i32 noundef %11) #12
  %13 = tail call i32 (ptr, ptr, ...) @fprintf(ptr noundef %0, ptr noundef nonnull @.str.6, i32 noundef %11) #12
  %14 = tail call i64 @fwrite(ptr nonnull @.str.7, i64 3, i64 1, ptr %0)
  %15 = tail call i32 (ptr, ptr, ...) @fprintf(ptr noundef %0, ptr noundef nonnull @.str.8, i32 noundef %5, i32 noundef %2, i32 noundef %7) #12
  %16 = add i32 %5, %3
  %17 = tail call i32 (ptr, ptr, ...) @fprintf(ptr noundef %0, ptr noundef nonnull @.str.14, i32 noundef %16, i32 noundef %2, i32 noundef %11) #12
  %18 = tail call i32 (ptr, ptr, ...) @fprintf(ptr noundef %0, ptr noundef nonnull @.str.15, i32 noundef %16) #12
  %19 = select i1 %8, i32 45, i32 32
  %20 = tail call i32 (ptr, ptr, ...) @fprintf(ptr noundef %0, ptr noundef nonnull @.str.16, i32 noundef %16, i32 noundef %19) #12
  %21 = tail call i32 (ptr, ptr, ...) @fprintf(ptr noundef %0, ptr noundef nonnull @.str.17, i32 noundef %16, i32 noundef %2) #12
  %22 = tail call i64 @fwrite(ptr nonnull @.str.11, i64 11, i64 1, ptr %0)
  ret void
}